; Function Attrs: nounwind uwtable
define range(i32 -2147483648, 1) i32 @fdt_find_max_phandle(ptr noundef %0, ptr noundef writeonly captures(address_is_null) %1) local_unnamed_addr #0 {
  %3 = tail call i32 @fdt_next_node(ptr noundef %0, i32 noundef -1, ptr noundef null) #9
  %4 = icmp slt i32 %3, 0
  br i1 %4, label %._crit_edge, label %.lr.ph

._crit_edge:                                      ; preds = %.lr.ph, %2
  %.016.lcssa = phi i32 [ 0, %2 ], [ %spec.select, %.lr.ph ]
  %.lcssa = phi i32 [ %3, %2 ], [ %8, %.lr.ph ]
  %5 = icmp eq i32 %.lcssa, -1
  br i1 %5, label %10, label %.thread

.lr.ph:                                           ; preds = %2, %.lr.ph
  %6 = phi i32 [ %8, %.lr.ph ], [ %3, %2 ]
  %.01631 = phi i32 [ %spec.select, %.lr.ph ], [ 0, %2 ]
  %7 = tail call i32 @fdt_get_phandle(ptr noundef %0, i32 noundef %6)
  %spec.select = tail call i32 @llvm.umax.i32(i32 %7, i32 %.01631)
  %8 = tail call i32 @fdt_next_node(ptr noundef %0, i32 noundef %6, ptr noundef null) #9
  %9 = icmp slt i32 %8, 0
  br i1 %9, label %._crit_edge, label %.lr.ph

10:                                               ; preds = %._crit_edge
  %.not = icmp eq ptr %1, null
  br i1 %.not, label %.thread, label %11

11:                                               ; preds = %10
  store i32 %.016.lcssa, ptr %1, align 4, !tbaa !6
  br label %.thread

.thread:                                          ; preds = %._crit_edge, %10, %11
  %.2 = phi i32 [ 0, %11 ], [ 0, %10 ], [ %.lcssa, %._crit_edge ]
  ret i32 %.2
}